; ModuleID = '32/1902.c'
source_filename = "32/1902.c"
target datalayout = "e-m:e-p270:32:32-p271:32:32-p272:64:64-i64:64-f80:128-n8:16:32:64-S128"
target triple = "x86_64-pc-linux-gnu"

@.str = private unnamed_addr constant [3 x i8] c"%d\00", align 1
@.str.1 = private unnamed_addr constant [3 x i8] c"%s\00", align 1
@.str.2 = private unnamed_addr constant [4 x i8] c"%s\0A\00", align 1

; Function Attrs: noinline nounwind uwtable
define dso_local void @main() #0 {
  %1 = alloca i32, align 4
  %2 = alloca i32, align 4
  %3 = alloca i32, align 4
  %4 = alloca i32, align 4
  %5 = alloca i32, align 4
  %6 = alloca [100 x [100 x i8]], align 16
  %7 = alloca [100 x i8], align 16
  %8 = alloca [100 x i8], align 16
  %9 = bitcast [100 x [100 x i8]]* %6 to i8*
  call void @llvm.memset.p0i8.i64(i8* align 16 %9, i8 0, i64 10000, i1 false)
  %10 = bitcast [100 x i8]* %7 to i8*
  call void @llvm.memset.p0i8.i64(i8* align 16 %10, i8 0, i64 100, i1 false)
  %11 = bitcast [100 x i8]* %8 to i8*
  call void @llvm.memset.p0i8.i64(i8* align 16 %11, i8 0, i64 100, i1 false)
  %12 = call i32 (i8*, ...) @__isoc99_scanf(i8* getelementptr inbounds ([3 x i8], [3 x i8]* @.str, i64 0, i64 0), i32* %3)
  store i32 0, i32* %1, align 4
  br label %13

13:                                               ; preds = %136, %0
  %14 = load i32, i32* %1, align 4
  %15 = load i32, i32* %3, align 4
  %16 = icmp slt i32 %14, %15
  br i1 %16, label %17, label %139

17:                                               ; preds = %13
  %18 = getelementptr inbounds [100 x i8], [100 x i8]* %7, i64 0, i64 0
  %19 = call i32 (i8*, ...) @__isoc99_scanf(i8* getelementptr inbounds ([3 x i8], [3 x i8]* @.str.1, i64 0, i64 0), i8* %18)
  %20 = getelementptr inbounds [100 x i8], [100 x i8]* %8, i64 0, i64 0
  %21 = call i32 (i8*, ...) @__isoc99_scanf(i8* getelementptr inbounds ([3 x i8], [3 x i8]* @.str.1, i64 0, i64 0), i8* %20)
  %22 = getelementptr inbounds [100 x i8], [100 x i8]* %7, i64 0, i64 0
  %23 = call i64 @strlen(i8* %22) #4
  %24 = trunc i64 %23 to i32
  store i32 %24, i32* %4, align 4
  %25 = getelementptr inbounds [100 x i8], [100 x i8]* %8, i64 0, i64 0
  %26 = call i64 @strlen(i8* %25) #4
  %27 = trunc i64 %26 to i32
  store i32 %27, i32* %5, align 4
  br label %28

28:                                               ; preds = %130, %17
  %29 = load i32, i32* %4, align 4
  %30 = icmp sgt i32 %29, 0
  br i1 %30, label %31, label %135

31:                                               ; preds = %28
  %32 = load i32, i32* %5, align 4
  %33 = icmp sle i32 %32, 0
  br i1 %33, label %34, label %47

34:                                               ; preds = %31
  %35 = load i32, i32* %4, align 4
  %36 = sub nsw i32 %35, 1
  %37 = sext i32 %36 to i64
  %38 = getelementptr inbounds [100 x i8], [100 x i8]* %7, i64 0, i64 %37
  %39 = load i8, i8* %38, align 1
  %40 = load i32, i32* %1, align 4
  %41 = sext i32 %40 to i64
  %42 = getelementptr inbounds [100 x [100 x i8]], [100 x [100 x i8]]* %6, i64 0, i64 %41
  %43 = load i32, i32* %4, align 4
  %44 = sub nsw i32 %43, 1
  %45 = sext i32 %44 to i64
  %46 = getelementptr inbounds [100 x i8], [100 x i8]* %42, i64 0, i64 %45
  store i8 %39, i8* %46, align 1
  br label %129

47:                                               ; preds = %31
  %48 = load i32, i32* %4, align 4
  %49 = sub nsw i32 %48, 1
  %50 = sext i32 %49 to i64
  %51 = getelementptr inbounds [100 x i8], [100 x i8]* %7, i64 0, i64 %50
  %52 = load i8, i8* %51, align 1
  %53 = sext i8 %52 to i32
  %54 = load i32, i32* %5, align 4
  %55 = sub nsw i32 %54, 1
  %56 = sext i32 %55 to i64
  %57 = getelementptr inbounds [100 x i8], [100 x i8]* %8, i64 0, i64 %56
  %58 = load i8, i8* %57, align 1
  %59 = sext i8 %58 to i32
  %60 = icmp sge i32 %53, %59
  br i1 %60, label %61, label %84

61:                                               ; preds = %47
  %62 = load i32, i32* %4, align 4
  %63 = sub nsw i32 %62, 1
  %64 = sext i32 %63 to i64
  %65 = getelementptr inbounds [100 x i8], [100 x i8]* %7, i64 0, i64 %64
  %66 = load i8, i8* %65, align 1
  %67 = sext i8 %66 to i32
  %68 = load i32, i32* %5, align 4
  %69 = sub nsw i32 %68, 1
  %70 = sext i32 %69 to i64
  %71 = getelementptr inbounds [100 x i8], [100 x i8]* %8, i64 0, i64 %70
  %72 = load i8, i8* %71, align 1
  %73 = sext i8 %72 to i32
  %74 = sub nsw i32 %67, %73
  %75 = add nsw i32 %74, 48
  %76 = trunc i32 %75 to i8
  %77 = load i32, i32* %1, align 4
  %78 = sext i32 %77 to i64
  %79 = getelementptr inbounds [100 x [100 x i8]], [100 x [100 x i8]]* %6, i64 0, i64 %78
  %80 = load i32, i32* %4, align 4
  %81 = sub nsw i32 %80, 1
  %82 = sext i32 %81 to i64
  %83 = getelementptr inbounds [100 x i8], [100 x i8]* %79, i64 0, i64 %82
  store i8 %76, i8* %83, align 1
  br label %128

84:                                               ; preds = %47
  %85 = load i32, i32* %4, align 4
  %86 = sub nsw i32 %85, 1
  %87 = sext i32 %86 to i64
  %88 = getelementptr inbounds [100 x i8], [100 x i8]* %7, i64 0, i64 %87
  %89 = load i8, i8* %88, align 1
  %90 = sext i8 %89 to i32
  %91 = load i32, i32* %5, align 4
  %92 = sub nsw i32 %91, 1
  %93 = sext i32 %92 to i64
  %94 = getelementptr inbounds [100 x i8], [100 x i8]* %8, i64 0, i64 %93
  %95 = load i8, i8* %94, align 1
  %96 = sext i8 %95 to i32
  %97 = icmp slt i32 %90, %96
  br i1 %97, label %98, label %127

98:                                               ; preds = %84
  %99 = load i32, i32* %4, align 4
  %100 = sub nsw i32 %99, 1
  %101 = sext i32 %100 to i64
  %102 = getelementptr inbounds [100 x i8], [100 x i8]* %7, i64 0, i64 %101
  %103 = load i8, i8* %102, align 1
  %104 = sext i8 %103 to i32
  %105 = load i32, i32* %5, align 4
  %106 = sub nsw i32 %105, 1
  %107 = sext i32 %106 to i64
  %108 = getelementptr inbounds [100 x i8], [100 x i8]* %8, i64 0, i64 %107
  %109 = load i8, i8* %108, align 1
  %110 = sext i8 %109 to i32
  %111 = sub nsw i32 %104, %110
  %112 = add nsw i32 %111, 58
  %113 = trunc i32 %112 to i8
  %114 = load i32, i32* %1, align 4
  %115 = sext i32 %114 to i64
  %116 = getelementptr inbounds [100 x [100 x i8]], [100 x [100 x i8]]* %6, i64 0, i64 %115
  %117 = load i32, i32* %4, align 4
  %118 = sub nsw i32 %117, 1
  %119 = sext i32 %118 to i64
  %120 = getelementptr inbounds [100 x i8], [100 x i8]* %116, i64 0, i64 %119
  store i8 %113, i8* %120, align 1
  %121 = load i32, i32* %4, align 4
  %122 = sub nsw i32 %121, 2
  %123 = sext i32 %122 to i64
  %124 = getelementptr inbounds [100 x i8], [100 x i8]* %7, i64 0, i64 %123
  %125 = load i8, i8* %124, align 1
  %126 = add i8 %125, -1
  store i8 %126, i8* %124, align 1
  br label %127

127:                                              ; preds = %98, %84
  br label %128

128:                                              ; preds = %127, %61
  br label %129

129:                                              ; preds = %128, %34
  br label %130

130:                                              ; preds = %129
  %131 = load i32, i32* %4, align 4
  %132 = add nsw i32 %131, -1
  store i32 %132, i32* %4, align 4
  %133 = load i32, i32* %5, align 4
  %134 = add nsw i32 %133, -1
  store i32 %134, i32* %5, align 4
  br label %28

135:                                              ; preds = %28
  br label %136

136:                                              ; preds = %135
  %137 = load i32, i32* %1, align 4
  %138 = add nsw i32 %137, 1
  store i32 %138, i32* %1, align 4
  br label %13

139:                                              ; preds = %13
  store i32 0, i32* %1, align 4
  br label %140

140:                                              ; preds = %169, %139
  %141 = load i32, i32* %1, align 4
  %142 = load i32, i32* %3, align 4
  %143 = icmp slt i32 %141, %142
  br i1 %143, label %144, label %172

144:                                              ; preds = %140
  store i32 0, i32* %2, align 4
  br label %145

145:                                              ; preds = %157, %144
  %146 = load i32, i32* %1, align 4
  %147 = sext i32 %146 to i64
  %148 = getelementptr inbounds [100 x [100 x i8]], [100 x [100 x i8]]* %6, i64 0, i64 %147
  %149 = load i32, i32* %2, align 4
  %150 = sext i32 %149 to i64
  %151 = getelementptr inbounds [100 x i8], [100 x i8]* %148, i64 0, i64 %150
  %152 = load i8, i8* %151, align 1
  %153 = sext i8 %152 to i32
  %154 = icmp ne i32 %153, 48
  br i1 %154, label %155, label %156

155:                                              ; preds = %145
  br label %160

156:                                              ; preds = %145
  br label %157

157:                                              ; preds = %156
  %158 = load i32, i32* %2, align 4
  %159 = add nsw i32 %158, 1
  store i32 %159, i32* %2, align 4
  br label %145

160:                                              ; preds = %155
  %161 = load i32, i32* %1, align 4
  %162 = sext i32 %161 to i64
  %163 = getelementptr inbounds [100 x [100 x i8]], [100 x [100 x i8]]* %6, i64 0, i64 %162
  %164 = getelementptr inbounds [100 x i8], [100 x i8]* %163, i64 0, i64 0
  %165 = load i32, i32* %2, align 4
  %166 = sext i32 %165 to i64
  %167 = getelementptr inbounds i8, i8* %164, i64 %166
  %168 = call i32 (i8*, ...) @printf(i8* getelementptr inbounds ([4 x i8], [4 x i8]* @.str.2, i64 0, i64 0), i8* %167)
  br label %169

169:                                              ; preds = %160
  %170 = load i32, i32* %1, align 4
  %171 = add nsw i32 %170, 1
  store i32 %171, i32* %1, align 4
  br label %140

172:                                              ; preds = %140
  ret void
}

; Function Attrs: argmemonly nounwind willreturn
declare void @llvm.memset.p0i8.i64(i8* nocapture writeonly, i8, i64, i1 immarg) #1

declare dso_local i32 @__isoc99_scanf(i8*, ...) #2

; Function Attrs: nounwind readonly
declare dso_local i64 @strlen(i8*) #3

declare dso_local i32 @printf(i8*, ...) #2


!llvm.module.flags = !{!0}
!llvm.ident = !{!1}

!0 = !{i32 1, !"wchar_size", i32 4}
!1 = !{!"clang version 10.0.0-4ubuntu1 "}
