; ModuleID = 'source-C-CXX/31/1902.c'
source_filename = "source-C-CXX/31/1902.c"
target datalayout = "e-m:e-p270:32:32-p271:32:32-p272:64:64-i64:64-f80:128-n8:16:32:64-S128"
target triple = "x86_64-pc-linux-gnu"

@.str = private unnamed_addr constant [3 x i8] c"%d\00", align 1
@.str.1 = private unnamed_addr constant [3 x i8] c"%s\00", align 1

; Function Attrs: nofree nounwind sspstrong uwtable
define dso_local void @main() local_unnamed_addr #0 {
  %1 = alloca i32, align 4
  %2 = alloca [100 x [100 x i8]], align 16
  %3 = alloca [100 x i8], align 16
  %4 = alloca [100 x i8], align 16
  %5 = bitcast i32* %1 to i8*
  call void @llvm.lifetime.start.p0i8(i64 4, i8* nonnull %5) #6
  %6 = getelementptr inbounds [100 x [100 x i8]], [100 x [100 x i8]]* %2, i64 0, i64 0, i64 0
  call void @llvm.lifetime.start.p0i8(i64 10000, i8* nonnull %6) #6
  call void @llvm.memset.p0i8.i64(i8* noundef nonnull align 16 dereferenceable(10000) %6, i8 0, i64 10000, i1 false)
  %7 = getelementptr inbounds [100 x i8], [100 x i8]* %3, i64 0, i64 0
  call void @llvm.lifetime.start.p0i8(i64 100, i8* nonnull %7) #6
  call void @llvm.memset.p0i8.i64(i8* noundef nonnull align 16 dereferenceable(100) %7, i8 0, i64 100, i1 false)
  %8 = getelementptr inbounds [100 x i8], [100 x i8]* %4, i64 0, i64 0
  call void @llvm.lifetime.start.p0i8(i64 100, i8* nonnull %8) #6
  call void @llvm.memset.p0i8.i64(i8* noundef nonnull align 16 dereferenceable(100) %8, i8 0, i64 100, i1 false)
  %9 = call i32 (i8*, ...) @__isoc99_scanf(i8* getelementptr inbounds ([3 x i8], [3 x i8]* @.str, i64 0, i64 0), i32* nonnull %1)
  %10 = load i32, i32* %1, align 4, !tbaa !5
  %11 = icmp sgt i32 %10, 0
  br i1 %11, label %14, label %79

12:                                               ; preds = %60
  %13 = icmp sgt i32 %62, 0
  br i1 %13, label %65, label %79

14:                                               ; preds = %0, %60
  %15 = phi i64 [ %61, %60 ], [ 0, %0 ]
  %16 = call i32 (i8*, ...) @__isoc99_scanf(i8* getelementptr inbounds ([3 x i8], [3 x i8]* @.str.1, i64 0, i64 0), i8* nonnull %7)
  %17 = call i32 (i8*, ...) @__isoc99_scanf(i8* getelementptr inbounds ([3 x i8], [3 x i8]* @.str.1, i64 0, i64 0), i8* nonnull %8)
  %18 = call i64 @strlen(i8* noundef nonnull %7) #7
  %19 = trunc i64 %18 to i32
  %20 = icmp sgt i32 %19, 0
  br i1 %20, label %21, label %60

21:                                               ; preds = %14
  %22 = call i64 @strlen(i8* noundef nonnull %8) #7
  %23 = trunc i64 %22 to i32
  %24 = and i64 %18, 4294967295
  br label %25

25:                                               ; preds = %21, %56
  %26 = phi i64 [ %24, %21 ], [ %59, %56 ]
  %27 = phi i32 [ %23, %21 ], [ %57, %56 ]
  %28 = phi i32 [ %19, %21 ], [ %30, %56 ]
  %29 = icmp slt i32 %27, 1
  %30 = add nsw i32 %28, -1
  %31 = zext i32 %30 to i64
  %32 = getelementptr inbounds [100 x i8], [100 x i8]* %3, i64 0, i64 %31
  %33 = load i8, i8* %32, align 1, !tbaa !9
  br i1 %29, label %34, label %37

34:                                               ; preds = %25
  %35 = getelementptr inbounds [100 x [100 x i8]], [100 x [100 x i8]]* %2, i64 0, i64 %15, i64 %31
  store i8 %33, i8* %35, align 1, !tbaa !9
  %36 = add nsw i32 %27, -1
  br label %56

37:                                               ; preds = %25
  %38 = add nsw i32 %27, -1
  %39 = zext i32 %38 to i64
  %40 = getelementptr inbounds [100 x i8], [100 x i8]* %4, i64 0, i64 %39
  %41 = load i8, i8* %40, align 1, !tbaa !9
  %42 = icmp slt i8 %33, %41
  br i1 %42, label %47, label %43

43:                                               ; preds = %37
  %44 = add i8 %33, 48
  %45 = sub i8 %44, %41
  %46 = getelementptr inbounds [100 x [100 x i8]], [100 x [100 x i8]]* %2, i64 0, i64 %15, i64 %31
  store i8 %45, i8* %46, align 1, !tbaa !9
  br label %56

47:                                               ; preds = %37
  %48 = add i8 %33, 58
  %49 = sub i8 %48, %41
  %50 = getelementptr inbounds [100 x [100 x i8]], [100 x [100 x i8]]* %2, i64 0, i64 %15, i64 %31
  store i8 %49, i8* %50, align 1, !tbaa !9
  %51 = add nsw i32 %28, -2
  %52 = sext i32 %51 to i64
  %53 = getelementptr inbounds [100 x i8], [100 x i8]* %3, i64 0, i64 %52
  %54 = load i8, i8* %53, align 1, !tbaa !9
  %55 = add i8 %54, -1
  store i8 %55, i8* %53, align 1, !tbaa !9
  br label %56

56:                                               ; preds = %34, %47, %43
  %57 = phi i32 [ %36, %34 ], [ %38, %47 ], [ %38, %43 ]
  %58 = icmp sgt i64 %26, 1
  %59 = add nsw i64 %26, -1
  br i1 %58, label %25, label %60, !llvm.loop !10

60:                                               ; preds = %56, %14
  %61 = add nuw nsw i64 %15, 1
  %62 = load i32, i32* %1, align 4, !tbaa !5
  %63 = sext i32 %62 to i64
  %64 = icmp slt i64 %61, %63
  br i1 %64, label %14, label %12, !llvm.loop !12

65:                                               ; preds = %12, %73
  %66 = phi i64 [ %75, %73 ], [ 0, %12 ]
  br label %67

67:                                               ; preds = %67, %65
  %68 = phi i64 [ %72, %67 ], [ 0, %65 ]
  %69 = getelementptr inbounds [100 x [100 x i8]], [100 x [100 x i8]]* %2, i64 0, i64 %66, i64 %68
  %70 = load i8, i8* %69, align 1, !tbaa !9
  %71 = icmp eq i8 %70, 48
  %72 = add nuw i64 %68, 1
  br i1 %71, label %67, label %73

73:                                               ; preds = %67
  %74 = call i32 @puts(i8* nonnull %69)
  %75 = add nuw nsw i64 %66, 1
  %76 = load i32, i32* %1, align 4, !tbaa !5
  %77 = sext i32 %76 to i64
  %78 = icmp slt i64 %75, %77
  br i1 %78, label %65, label %79, !llvm.loop !13

79:                                               ; preds = %73, %0, %12
  call void @llvm.lifetime.end.p0i8(i64 100, i8* nonnull %8) #6
  call void @llvm.lifetime.end.p0i8(i64 100, i8* nonnull %7) #6
  call void @llvm.lifetime.end.p0i8(i64 10000, i8* nonnull %6) #6
  call void @llvm.lifetime.end.p0i8(i64 4, i8* nonnull %5) #6
  ret void
}

; Function Attrs: argmemonly mustprogress nofree nosync nounwind willreturn
declare void @llvm.lifetime.start.p0i8(i64 immarg, i8* nocapture) #1

; Function Attrs: argmemonly mustprogress nofree nounwind willreturn writeonly
declare void @llvm.memset.p0i8.i64(i8* nocapture writeonly, i8, i64, i1 immarg) #2

; Function Attrs: nofree nounwind
declare noundef i32 @__isoc99_scanf(i8* nocapture noundef readonly, ...) local_unnamed_addr #3

; Function Attrs: argmemonly mustprogress nofree nounwind readonly willreturn
declare i64 @strlen(i8* nocapture) local_unnamed_addr #4

; Function Attrs: argmemonly mustprogress nofree nosync nounwind willreturn
declare void @llvm.lifetime.end.p0i8(i64 immarg, i8* nocapture) #1

; Function Attrs: nofree nounwind
declare noundef i32 @puts(i8* nocapture noundef readonly) local_unnamed_addr #5


!llvm.module.flags = !{!0, !1, !2, !3}
!llvm.ident = !{!4}

!0 = !{i32 1, !"wchar_size", i32 4}
!1 = !{i32 7, !"PIC Level", i32 2}
!2 = !{i32 7, !"PIE Level", i32 2}
!3 = !{i32 7, !"uwtable", i32 1}
!4 = !{!"clang version 13.0.0"}
!5 = !{!6, !6, i64 0}
!6 = !{!"int", !7, i64 0}
!7 = !{!"omnipotent char", !8, i64 0}
!8 = !{!"Simple C/C++ TBAA"}
!9 = !{!7, !7, i64 0}
!10 = distinct !{!10, !11}
!11 = !{!"llvm.loop.mustprogress"}
!12 = distinct !{!12, !11}
!13 = distinct !{!13, !11}
